; Function Attrs: nounwind uwtable
define internal void @pkey_kdf_test_cleanup(ptr noundef readonly captures(none) %0) #1 {
  %2 = getelementptr inbounds nuw i8, ptr %0, i64 35272
  %3 = load ptr, ptr %2, align 8, !tbaa !20
  %4 = getelementptr inbounds nuw i8, ptr %3, i64 8
  %5 = load ptr, ptr %4, align 8, !tbaa !209
  tail call void @CRYPTO_free(ptr noundef %5, ptr noundef nonnull @.str.29, i32 noundef 3974) #10
  %6 = load ptr, ptr %3, align 8, !tbaa !207
  tail call void @EVP_PKEY_CTX_free(ptr noundef %6) #10
  ret void
}